target datalayout = "e-m:e-p270:32:32-p271:32:32-p272:64:64-i64:64-i128:128-f80:128-n8:16:32:64-S128"
target triple = "x86_64-pc-linux-gnu"

%struct.H5O_shared_t = type { i32, ptr, i32, %union.anon }
%union.anon = type { %struct.H5O_mesg_loc_t }
%struct.H5O_mesg_loc_t = type { i32, i64 }
%struct.H5A_t = type { %struct.H5O_shared_t, %struct.H5O_loc_t, i8, %struct.H5G_name_t, ptr }
%struct.H5O_loc_t = type { ptr, i64, i8 }
%struct.H5G_name_t = type { ptr, ptr, i32 }
%union.H5O_fheap_id_t = type { i64 }
%struct.H5A_shared_t = type { i8, ptr, i32, ptr, i64, ptr, i64, ptr, i64, i32, i32 }
%struct.H5A_dense_bt2_name_rec_t = type { %union.H5O_fheap_id_t, i8, i32, i32 }
%struct.H5A_fh_ud_cp_t = type { ptr, ptr, ptr }

@H5A_init_g = external global i8, align 1
@H5_libterm_g = external global i8, align 1
@.str = private unnamed_addr constant [102 x i8] c"generated/home/dtcxzyw/WorkSpace/Projects/compilers/llvm-opt-benchmark/bench/hdf5/hdf5/src/H5Adense.c\00", align 1
@H5E_ATTR_g = external global i64, align 8
@__func__.H5A__dense_copy_fh_cb = private unnamed_addr constant [22 x i8] c"H5A__dense_copy_fh_cb\00", align 1
@H5E_CANTDECODE_g = external global i64, align 8
@.str.54 = private unnamed_addr constant [23 x i8] c"can't decode attribute\00", align 1

; Function Attrs: nounwind uwtable
define internal i32 @H5A__dense_copy_fh_cb(ptr noundef %0, i64 noundef %1, ptr noundef %2) #0 {
  %4 = alloca ptr, align 8
  %5 = alloca i64, align 8
  %6 = alloca ptr, align 8
  %7 = alloca ptr, align 8
  %8 = alloca i32, align 4
  %9 = alloca i8, align 1
  store ptr %0, ptr %4, align 8, !tbaa !62
  store i64 %1, ptr %5, align 8, !tbaa !34
  store ptr %2, ptr %6, align 8, !tbaa !62
  call void @llvm.lifetime.start.p0(i64 8, ptr %7) #7
  %10 = load ptr, ptr %6, align 8, !tbaa !62
  store ptr %10, ptr %7, align 8, !tbaa !62
  call void @llvm.lifetime.start.p0(i64 4, ptr %8) #7
  store i32 0, ptr %8, align 4, !tbaa !14
  call void @llvm.lifetime.start.p0(i64 1, ptr %9) #7
  store i8 0, ptr %9, align 1, !tbaa !16
  %11 = load i8, ptr @H5A_init_g, align 1, !tbaa !16, !range !18, !noundef !19
  %12 = trunc i8 %11 to i1
  br i1 %12, label %17, label %13

13:                                               ; preds = %3
  %14 = load i8, ptr @H5_libterm_g, align 1, !tbaa !16, !range !18, !noundef !19
  %15 = trunc i8 %14 to i1
  %16 = xor i1 %15, true
  br label %17

17:                                               ; preds = %13, %3
  %18 = phi i1 [ true, %3 ], [ %16, %13 ]
  %19 = xor i1 %18, true
  %20 = xor i1 %19, true
  %21 = zext i1 %20 to i32
  %22 = sext i32 %21 to i64
  %23 = call i64 @llvm.expect.i64(i64 %22, i64 1)
  %24 = icmp ne i64 %23, 0
  br i1 %24, label %25, label %91

25:                                               ; preds = %17
  %26 = load ptr, ptr %7, align 8, !tbaa !62
  %27 = getelementptr inbounds nuw %struct.H5A_fh_ud_cp_t, ptr %26, i32 0, i32 0
  %28 = load ptr, ptr %27, align 8, !tbaa !130
  %29 = load i64, ptr %5, align 8, !tbaa !34
  %30 = load ptr, ptr %4, align 8, !tbaa !62
  %31 = call ptr @H5O_msg_decode(ptr noundef %28, ptr noundef null, i32 noundef 12, i64 noundef %29, ptr noundef %30)
  %32 = load ptr, ptr %7, align 8, !tbaa !62
  %33 = getelementptr inbounds nuw %struct.H5A_fh_ud_cp_t, ptr %32, i32 0, i32 2
  store ptr %31, ptr %33, align 8, !tbaa !133
  %34 = icmp eq ptr null, %31
  br i1 %34, label %35, label %54

35:                                               ; preds = %25
  br label %36

36:                                               ; preds = %35
  br label %37

37:                                               ; preds = %36
  br label %38

38:                                               ; preds = %37
  %39 = load i64, ptr @H5E_ATTR_g, align 8, !tbaa !34
  %40 = load i64, ptr @H5E_CANTDECODE_g, align 8, !tbaa !34
  %41 = call i32 (ptr, ptr, i32, i64, i64, ptr, ...) @H5E_printf_stack(ptr noundef @.str, ptr noundef @__func__.H5A__dense_copy_fh_cb, i32 noundef 808, i64 noundef %39, i64 noundef %40, ptr noundef @.str.54)
  br label %42

42:                                               ; preds = %38
  br label %43

43:                                               ; preds = %42
  store i8 1, ptr %9, align 1, !tbaa !16
  %44 = load i8, ptr %9, align 1, !tbaa !16, !range !18, !noundef !19
  %45 = trunc i8 %44 to i1
  %46 = zext i1 %45 to i8
  store i8 %46, ptr %9, align 1, !tbaa !16
  br label %47

47:                                               ; preds = %43
  br label %48

48:                                               ; preds = %47
  br label %49

49:                                               ; preds = %48
  store i32 -1, ptr %8, align 4, !tbaa !14
  br label %90

50:                                               ; No predecessors!
  br label %51

51:                                               ; preds = %50
  br label %52

52:                                               ; preds = %51
  br label %53

53:                                               ; preds = %52
  br label %54

54:                                               ; preds = %53, %25
  %55 = load ptr, ptr %7, align 8, !tbaa !62
  %56 = getelementptr inbounds nuw %struct.H5A_fh_ud_cp_t, ptr %55, i32 0, i32 1
  %57 = load ptr, ptr %56, align 8, !tbaa !132
  %58 = getelementptr inbounds nuw %struct.H5A_dense_bt2_name_rec_t, ptr %57, i32 0, i32 2
  %59 = load i32, ptr %58, align 4, !tbaa !153
  %60 = load ptr, ptr %7, align 8, !tbaa !62
  %61 = getelementptr inbounds nuw %struct.H5A_fh_ud_cp_t, ptr %60, i32 0, i32 2
  %62 = load ptr, ptr %61, align 8, !tbaa !133
  %63 = getelementptr inbounds nuw %struct.H5A_t, ptr %62, i32 0, i32 4
  %64 = load ptr, ptr %63, align 8, !tbaa !65
  %65 = getelementptr inbounds nuw %struct.H5A_shared_t, ptr %64, i32 0, i32 9
  store i32 %59, ptr %65, align 8, !tbaa !86
  %66 = load ptr, ptr %7, align 8, !tbaa !62
  %67 = getelementptr inbounds nuw %struct.H5A_fh_ud_cp_t, ptr %66, i32 0, i32 1
  %68 = load ptr, ptr %67, align 8, !tbaa !132
  %69 = getelementptr inbounds nuw %struct.H5A_dense_bt2_name_rec_t, ptr %68, i32 0, i32 1
  %70 = load i8, ptr %69, align 8, !tbaa !101
  %71 = zext i8 %70 to i32
  %72 = and i32 %71, 2
  %73 = icmp ne i32 %72, 0
  br i1 %73, label %74, label %89

74:                                               ; preds = %54
  %75 = load ptr, ptr %7, align 8, !tbaa !62
  %76 = getelementptr inbounds nuw %struct.H5A_fh_ud_cp_t, ptr %75, i32 0, i32 2
  %77 = load ptr, ptr %76, align 8, !tbaa !133
  %78 = getelementptr inbounds nuw %struct.H5A_t, ptr %77, i32 0, i32 0
  %79 = load ptr, ptr %7, align 8, !tbaa !62
  %80 = getelementptr inbounds nuw %struct.H5A_fh_ud_cp_t, ptr %79, i32 0, i32 0
  %81 = load ptr, ptr %80, align 8, !tbaa !130
  %82 = load ptr, ptr %7, align 8, !tbaa !62
  %83 = getelementptr inbounds nuw %struct.H5A_fh_ud_cp_t, ptr %82, i32 0, i32 1
  %84 = load ptr, ptr %83, align 8, !tbaa !132
  %85 = getelementptr inbounds nuw %struct.H5A_dense_bt2_name_rec_t, ptr %84, i32 0, i32 0
  %86 = getelementptr inbounds nuw %union.H5O_fheap_id_t, ptr %85, i32 0, i32 0
  %87 = load i64, ptr %86, align 8
  %88 = call i32 @H5SM_reconstitute(ptr noundef %78, ptr noundef %81, i32 noundef 12, i64 %87)
  br label %89

89:                                               ; preds = %74, %54
  br label %90

90:                                               ; preds = %89, %49
  br label %91

91:                                               ; preds = %90, %17
  %92 = load i32, ptr %8, align 4, !tbaa !14
  call void @llvm.lifetime.end.p0(i64 1, ptr %9) #7
  call void @llvm.lifetime.end.p0(i64 4, ptr %8) #7
  call void @llvm.lifetime.end.p0(i64 8, ptr %7) #7
  ret i32 %92
}