; Function Attrs: nounwind uwtable
define internal range(i32 -1, 1) i32 @H5A__dense_copy_fh_cb(ptr noundef %0, i64 noundef %1, ptr noundef captures(none) %2) #0 {
  %4 = load i8, ptr @H5A_init_g, align 1, !tbaa !3, !range !7, !noundef !8
  %5 = trunc nuw i8 %4 to i1
  %6 = load i8, ptr @H5_libterm_g, align 1, !range !7
  %7 = trunc nuw i8 %6 to i1
  %8 = xor i1 %7, true
  %9 = select i1 %5, i1 true, i1 %8
  br i1 %9, label %10, label %34, !prof !9

10:                                               ; preds = %3
  %11 = load ptr, ptr %2, align 8, !tbaa !109
  %12 = tail call ptr @H5O_msg_decode(ptr noundef %11, ptr noundef null, i32 noundef 12, i64 noundef %1, ptr noundef %0) #7
  %13 = getelementptr inbounds nuw i8, ptr %2, i64 16
  store ptr %12, ptr %13, align 8, !tbaa !113
  %14 = icmp eq ptr %12, null
  br i1 %14, label %15, label %19

15:                                               ; preds = %10
  %16 = load i64, ptr @H5E_ATTR_g, align 8, !tbaa !27
  %17 = load i64, ptr @H5E_CANTDECODE_g, align 8, !tbaa !27
  %18 = tail call i32 (ptr, ptr, i32, i64, i64, ptr, ...) @H5E_printf_stack(ptr noundef nonnull @.str, ptr noundef nonnull @__func__.H5A__dense_copy_fh_cb, i32 noundef 808, i64 noundef %16, i64 noundef %17, ptr noundef nonnull @.str.54) #7
  br label %34

19:                                               ; preds = %10
  %20 = getelementptr inbounds nuw i8, ptr %2, i64 8
  %21 = load ptr, ptr %20, align 8, !tbaa !112
  %22 = getelementptr inbounds nuw i8, ptr %21, i64 12
  %23 = load i32, ptr %22, align 4, !tbaa !123
  %24 = getelementptr inbounds nuw i8, ptr %12, i64 96
  %25 = load ptr, ptr %24, align 8, !tbaa !53
  %26 = getelementptr inbounds nuw i8, ptr %25, i64 72
  store i32 %23, ptr %26, align 8, !tbaa !72
  %27 = getelementptr inbounds nuw i8, ptr %21, i64 8
  %28 = load i8, ptr %27, align 8, !tbaa !81
  %29 = and i8 %28, 2
  %.not = icmp eq i8 %29, 0
  br i1 %.not, label %34, label %30

30:                                               ; preds = %19
  %31 = load ptr, ptr %2, align 8, !tbaa !109
  %32 = load i64, ptr %21, align 8
  %33 = tail call i32 @H5SM_reconstitute(ptr noundef nonnull %12, ptr noundef %31, i32 noundef 12, i64 %32) #7
  br label %34

34:                                               ; preds = %15, %30, %19, %3
  %.0 = phi i32 [ -1, %15 ], [ 0, %30 ], [ 0, %19 ], [ 0, %3 ]
  ret i32 %.0
}